target datalayout = "e-m:e-p270:32:32-p271:32:32-p272:64:64-i64:64-i128:128-f80:128-n8:16:32:64-S128"
target triple = "x86_64-pc-linux-gnu"

%"class.std::__cxx11::basic_string" = type { %"struct.std::__cxx11::basic_string<char>::_Alloc_hider", i64, %union.anon }
%"struct.std::__cxx11::basic_string<char>::_Alloc_hider" = type { ptr }
%union.anon = type { i64, [8 x i8] }

@.str.45 = private unnamed_addr constant [1 x i8] zeroinitializer, align 1
@.str.124 = private unnamed_addr constant [14 x i8] c"\\:*?\22<>|\0A\0D\09\0C\0B\00", align 1
@.str.125 = private unnamed_addr constant [8 x i8] c"(empty)\00", align 1

; Function Attrs: mustprogress uwtable
define dso_local void @_ZN7cmCTest16SafeBuildIdFieldERKNSt7__cxx1112basic_stringIcSt11char_traitsIcESaIcEEE(ptr dead_on_unwind noalias writable sret(%"class.std::__cxx11::basic_string") align 8 %0, ptr noundef nonnull align 8 dereferenceable(32) %1) #4 align 2 personality ptr @__gxx_personality_v0 {
  %3 = alloca ptr, align 8
  %4 = alloca ptr, align 8
  %5 = alloca i1, align 1
  %6 = alloca ptr, align 8
  %7 = alloca i64, align 8
  %8 = alloca i64, align 8
  %9 = alloca [2 x i8], align 1
  %10 = alloca ptr, align 8
  %11 = alloca i32, align 4
  store ptr %0, ptr %3, align 8
  store ptr %1, ptr %4, align 8
  store i1 false, ptr %5, align 1
  %12 = load ptr, ptr %4, align 8
  call void @_ZNSt7__cxx1112basic_stringIcSt11char_traitsIcESaIcEEC1ERKS4_(ptr noundef nonnull align 8 dereferenceable(32) %0, ptr noundef nonnull align 8 dereferenceable(32) %12)
  %13 = call noundef zeroext i1 @_ZNKSt7__cxx1112basic_stringIcSt11char_traitsIcESaIcEE5emptyEv(ptr noundef nonnull align 8 dereferenceable(32) %0) #3
  br i1 %13, label %43, label %14

14:                                               ; preds = %2
  store ptr @.str.124, ptr %6, align 8
  %15 = load ptr, ptr %6, align 8
  %16 = call noundef i64 @_ZNKSt7__cxx1112basic_stringIcSt11char_traitsIcESaIcEE13find_first_ofEPKcm(ptr noundef nonnull align 8 dereferenceable(32) %0, ptr noundef %15, i64 noundef 0) #3
  %17 = icmp ne i64 %16, -1
  br i1 %17, label %18, label %42

18:                                               ; preds = %14
  store i64 0, ptr %7, align 8
  %19 = load ptr, ptr %6, align 8
  %20 = call i64 @strlen(ptr noundef %19) #17
  store i64 %20, ptr %8, align 8
  %21 = getelementptr inbounds [2 x i8], ptr %9, i64 0, i64 1
  store i8 0, ptr %21, align 1
  store i64 0, ptr %7, align 8
  br label %22

22:                                               ; preds = %34, %18
  %23 = load i64, ptr %7, align 8
  %24 = load i64, ptr %8, align 8
  %25 = icmp ult i64 %23, %24
  br i1 %25, label %26, label %41

26:                                               ; preds = %22
  %27 = load ptr, ptr %6, align 8
  %28 = load i64, ptr %7, align 8
  %29 = getelementptr inbounds i8, ptr %27, i64 %28
  %30 = load i8, ptr %29, align 1
  %31 = getelementptr inbounds [2 x i8], ptr %9, i64 0, i64 0
  store i8 %30, ptr %31, align 1
  %32 = getelementptr inbounds [2 x i8], ptr %9, i64 0, i64 0
  invoke void @_ZN5cmsys11SystemTools13ReplaceStringERNSt7__cxx1112basic_stringIcSt11char_traitsIcESaIcEEEPKcS9_(ptr noundef nonnull align 8 dereferenceable(32) %0, ptr noundef %32, ptr noundef @.str.45)
          to label %33 unwind label %37

33:                                               ; preds = %26
  br label %34

34:                                               ; preds = %33
  %35 = load i64, ptr %7, align 8
  %36 = add i64 %35, 1
  store i64 %36, ptr %7, align 8
  br label %22, !llvm.loop !12

37:                                               ; preds = %45, %26
  %38 = landingpad { ptr, i32 }
          cleanup
  %39 = extractvalue { ptr, i32 } %38, 0
  store ptr %39, ptr %10, align 8
  %40 = extractvalue { ptr, i32 } %38, 1
  store i32 %40, ptr %11, align 4
  call void @_ZNSt7__cxx1112basic_stringIcSt11char_traitsIcESaIcEED1Ev(ptr noundef nonnull align 8 dereferenceable(32) %0) #3
  br label %52

41:                                               ; preds = %22
  br label %42

42:                                               ; preds = %41, %14
  br label %43

43:                                               ; preds = %42, %2
  %44 = call noundef zeroext i1 @_ZNKSt7__cxx1112basic_stringIcSt11char_traitsIcESaIcEE5emptyEv(ptr noundef nonnull align 8 dereferenceable(32) %0) #3
  br i1 %44, label %45, label %48

45:                                               ; preds = %43
  %46 = invoke noundef nonnull align 8 dereferenceable(32) ptr @_ZNSt7__cxx1112basic_stringIcSt11char_traitsIcESaIcEEaSEPKc(ptr noundef nonnull align 8 dereferenceable(32) %0, ptr noundef @.str.125)
          to label %47 unwind label %37

47:                                               ; preds = %45
  br label %48

48:                                               ; preds = %47, %43
  store i1 true, ptr %5, align 1
  %49 = load i1, ptr %5, align 1
  br i1 %49, label %51, label %50

50:                                               ; preds = %48
  call void @_ZNSt7__cxx1112basic_stringIcSt11char_traitsIcESaIcEED1Ev(ptr noundef nonnull align 8 dereferenceable(32) %0) #3
  br label %51

51:                                               ; preds = %50, %48
  ret void

52:                                               ; preds = %37
  %53 = load ptr, ptr %10, align 8
  %54 = load i32, ptr %11, align 4
  %55 = insertvalue { ptr, i32 } poison, ptr %53, 0
  %56 = insertvalue { ptr, i32 } %55, i32 %54, 1
  resume { ptr, i32 } %56
}