; Function Attrs: mustprogress uwtable
define dso_local void @_ZN7cmCTest16SafeBuildIdFieldERKNSt7__cxx1112basic_stringIcSt11char_traitsIcESaIcEEE(ptr dead_on_unwind noalias nonnull writable sret(%"class.std::__cxx11::basic_string") align 8 %0, ptr noundef nonnull align 8 dereferenceable(32) %1) local_unnamed_addr #3 align 2 personality ptr @__gxx_personality_v0 {
  %3 = alloca [2 x i8], align 1
  tail call void @_ZNSt7__cxx1112basic_stringIcSt11char_traitsIcESaIcEEC1ERKS4_(ptr noundef nonnull align 8 dereferenceable(32) %0, ptr noundef nonnull align 8 dereferenceable(32) %1)
  %4 = tail call noundef zeroext i1 @_ZNKSt7__cxx1112basic_stringIcSt11char_traitsIcESaIcEE5emptyEv(ptr noundef nonnull align 8 dereferenceable(32) %0) #28
  br i1 %4, label %.loopexit, label %5

5:                                                ; preds = %2
  %6 = tail call noundef i64 @_ZNKSt7__cxx1112basic_stringIcSt11char_traitsIcESaIcEE13find_first_ofEPKcm(ptr noundef nonnull align 8 dereferenceable(32) %0, ptr noundef nonnull @.str.124, i64 noundef 0) #28
  %.not = icmp eq i64 %6, -1
  br i1 %.not, label %.loopexit, label %7

7:                                                ; preds = %5
  %8 = getelementptr inbounds i8, ptr %3, i64 1
  store i8 0, ptr %8, align 1
  br label %9

9:                                                ; preds = %7, %12
  %.011 = phi i64 [ 0, %7 ], [ %13, %12 ]
  %10 = getelementptr inbounds i8, ptr @.str.124, i64 %.011
  %11 = load i8, ptr %10, align 1
  store i8 %11, ptr %3, align 1
  invoke void @_ZN5cmsys11SystemTools13ReplaceStringERNSt7__cxx1112basic_stringIcSt11char_traitsIcESaIcEEEPKcS9_(ptr noundef nonnull align 8 dereferenceable(32) %0, ptr noundef nonnull %3, ptr noundef nonnull @.str.45)
          to label %12 unwind label %.loopexit10

12:                                               ; preds = %9
  %13 = add nuw nsw i64 %.011, 1
  %exitcond.not = icmp eq i64 %13, 13
  br i1 %exitcond.not, label %.loopexit, label %9, !llvm.loop !36

.loopexit10:                                      ; preds = %9
  %lpad.loopexit = landingpad { ptr, i32 }
          cleanup
  br label %14

.loopexit.split-lp:                               ; preds = %16
  %lpad.loopexit.split-lp = landingpad { ptr, i32 }
          cleanup
  br label %14

14:                                               ; preds = %.loopexit.split-lp, %.loopexit10
  %lpad.phi = phi { ptr, i32 } [ %lpad.loopexit, %.loopexit10 ], [ %lpad.loopexit.split-lp, %.loopexit.split-lp ]
  call void @_ZNSt7__cxx1112basic_stringIcSt11char_traitsIcESaIcEED1Ev(ptr noundef nonnull align 8 dereferenceable(32) %0) #28
  resume { ptr, i32 } %lpad.phi

.loopexit:                                        ; preds = %12, %5, %2
  %15 = call noundef zeroext i1 @_ZNKSt7__cxx1112basic_stringIcSt11char_traitsIcESaIcEE5emptyEv(ptr noundef nonnull align 8 dereferenceable(32) %0) #28
  br i1 %15, label %16, label %18

16:                                               ; preds = %.loopexit
  %17 = invoke noundef nonnull align 8 dereferenceable(32) ptr @_ZNSt7__cxx1112basic_stringIcSt11char_traitsIcESaIcEEaSEPKc(ptr noundef nonnull align 8 dereferenceable(32) %0, ptr noundef nonnull @.str.125)
          to label %18 unwind label %.loopexit.split-lp

18:                                               ; preds = %.loopexit, %16
  ret void
}